target datalayout = "e-m:e-p270:32:32-p271:32:32-p272:64:64-i64:64-i128:128-f80:128-n8:16:32:64-S128"
target triple = "x86_64-pc-linux-gnu"

%struct._wmem_tree_key_t = type { i32, ptr }
%struct._packet_info = type { ptr, ptr, i32, i32, %struct.nstime_t, %struct.nstime_t, %struct.nstime_t, i32, ptr, ptr, ptr, ptr, %struct._address, %struct._address, %struct._address, %struct._address, %struct._address, %struct._address, i32, ptr, i32, %struct.anon, i32, i32, i32, i32, ptr, i32, ptr, ptr, i16, i16, i32, i32, i16, i32, i32, ptr, ptr, ptr, i8, i8, i16, i16, i16, i32, i16, i16, ptr, ptr, ptr, ptr, ptr, i32 }
%struct.nstime_t = type { i64, i32 }
%struct._address = type { i32, i32, ptr, ptr }
%struct.anon = type { i8, [3 x i8] }
%struct._gcp_msg_t = type { i32, i32, i32, %struct.nstime_t, ptr, i32 }
%struct._gcp_trx_msg_t = type { ptr, ptr, ptr }
%struct._gcp_trx_t = type { ptr, i32, i32, i32, ptr, ptr, i32 }

@.str.25 = private unnamed_addr constant [55 x i8] c"%s:%u: failed assertion \22DISSECTOR_ASSERT_NOT_REACHED\22\00", align 1
@.str.26 = private unnamed_addr constant [30 x i8] c"epan/dissectors/packet-h248.c\00", align 1
@gcp_trxs = internal global ptr null, align 8
@.str.27 = private unnamed_addr constant [29 x i8] c"%s:%u: failed assertion \22%s\22\00", align 1
@.str.28 = private unnamed_addr constant [7 x i8] c"trxmsg\00", align 1

; Function Attrs: nounwind uwtable
define hidden ptr @gcp_trx(ptr noundef %0, i32 noundef %1, i32 noundef %2, ptr noundef %3, i32 noundef %4) #0 {
  %6 = alloca ptr, align 8
  %7 = alloca ptr, align 8
  %8 = alloca i32, align 4
  %9 = alloca i32, align 4
  %10 = alloca ptr, align 8
  %11 = alloca i32, align 4
  %12 = alloca ptr, align 8
  %13 = alloca ptr, align 8
  %14 = alloca [4 x %struct._wmem_tree_key_t], align 16
  store ptr %0, ptr %7, align 8
  store i32 %1, ptr %8, align 4
  store i32 %2, ptr %9, align 4
  store ptr %3, ptr %10, align 8
  store i32 %4, ptr %11, align 4
  store ptr null, ptr %12, align 8
  %15 = load ptr, ptr %7, align 8
  %16 = icmp ne ptr %15, null
  br i1 %16, label %18, label %17

17:                                               ; preds = %5
  store ptr null, ptr %6, align 8
  br label %175

18:                                               ; preds = %5
  %19 = load i32, ptr %11, align 4
  %20 = icmp ne i32 %19, 0
  br i1 %20, label %21, label %115

21:                                               ; preds = %18
  %22 = load ptr, ptr %7, align 8
  %23 = getelementptr inbounds %struct._gcp_msg_t, ptr %22, i32 0, i32 5
  %24 = load i32, ptr %23, align 8
  %25 = icmp ne i32 %24, 0
  br i1 %25, label %26, label %56

26:                                               ; preds = %21
  %27 = load ptr, ptr %7, align 8
  %28 = getelementptr inbounds %struct._gcp_msg_t, ptr %27, i32 0, i32 4
  %29 = load ptr, ptr %28, align 8
  store ptr %29, ptr %13, align 8
  br label %30

30:                                               ; preds = %51, %26
  %31 = load ptr, ptr %13, align 8
  %32 = icmp ne ptr %31, null
  br i1 %32, label %33, label %55

33:                                               ; preds = %30
  %34 = load ptr, ptr %13, align 8
  %35 = getelementptr inbounds %struct._gcp_trx_msg_t, ptr %34, i32 0, i32 0
  %36 = load ptr, ptr %35, align 8
  %37 = icmp ne ptr %36, null
  br i1 %37, label %38, label %50

38:                                               ; preds = %33
  %39 = load ptr, ptr %13, align 8
  %40 = getelementptr inbounds %struct._gcp_trx_msg_t, ptr %39, i32 0, i32 0
  %41 = load ptr, ptr %40, align 8
  %42 = getelementptr inbounds %struct._gcp_trx_t, ptr %41, i32 0, i32 1
  %43 = load i32, ptr %42, align 8
  %44 = load i32, ptr %8, align 4
  %45 = icmp eq i32 %43, %44
  br i1 %45, label %46, label %50

46:                                               ; preds = %38
  %47 = load ptr, ptr %13, align 8
  %48 = getelementptr inbounds %struct._gcp_trx_msg_t, ptr %47, i32 0, i32 0
  %49 = load ptr, ptr %48, align 8
  store ptr %49, ptr %6, align 8
  br label %175

50:                                               ; preds = %38, %33
  br label %51

51:                                               ; preds = %50
  %52 = load ptr, ptr %13, align 8
  %53 = getelementptr inbounds %struct._gcp_trx_msg_t, ptr %52, i32 0, i32 1
  %54 = load ptr, ptr %53, align 8
  store ptr %54, ptr %13, align 8
  br label %30, !llvm.loop !4

55:                                               ; preds = %30
  call void (ptr, ...) @proto_report_dissector_bug(ptr noundef @.str.25, ptr noundef @.str.26, i32 noundef 685) #7
  unreachable

56:                                               ; preds = %21
  %57 = getelementptr [4 x %struct._wmem_tree_key_t], ptr %14, i64 0, i64 0
  %58 = getelementptr inbounds %struct._wmem_tree_key_t, ptr %57, i32 0, i32 0
  store i32 1, ptr %58, align 16
  %59 = load ptr, ptr %7, align 8
  %60 = getelementptr inbounds %struct._gcp_msg_t, ptr %59, i32 0, i32 1
  %61 = getelementptr [4 x %struct._wmem_tree_key_t], ptr %14, i64 0, i64 0
  %62 = getelementptr inbounds %struct._wmem_tree_key_t, ptr %61, i32 0, i32 1
  store ptr %60, ptr %62, align 8
  %63 = getelementptr [4 x %struct._wmem_tree_key_t], ptr %14, i64 0, i64 1
  %64 = getelementptr inbounds %struct._wmem_tree_key_t, ptr %63, i32 0, i32 0
  store i32 1, ptr %64, align 16
  %65 = load ptr, ptr %7, align 8
  %66 = getelementptr inbounds %struct._gcp_msg_t, ptr %65, i32 0, i32 0
  %67 = getelementptr [4 x %struct._wmem_tree_key_t], ptr %14, i64 0, i64 1
  %68 = getelementptr inbounds %struct._wmem_tree_key_t, ptr %67, i32 0, i32 1
  store ptr %66, ptr %68, align 8
  %69 = getelementptr [4 x %struct._wmem_tree_key_t], ptr %14, i64 0, i64 2
  %70 = getelementptr inbounds %struct._wmem_tree_key_t, ptr %69, i32 0, i32 0
  store i32 1, ptr %70, align 16
  %71 = getelementptr [4 x %struct._wmem_tree_key_t], ptr %14, i64 0, i64 2
  %72 = getelementptr inbounds %struct._wmem_tree_key_t, ptr %71, i32 0, i32 1
  store ptr %8, ptr %72, align 8
  %73 = getelementptr [4 x %struct._wmem_tree_key_t], ptr %14, i64 0, i64 3
  %74 = getelementptr inbounds %struct._wmem_tree_key_t, ptr %73, i32 0, i32 0
  store i32 0, ptr %74, align 16
  %75 = getelementptr [4 x %struct._wmem_tree_key_t], ptr %14, i64 0, i64 3
  %76 = getelementptr inbounds %struct._wmem_tree_key_t, ptr %75, i32 0, i32 1
  store ptr null, ptr %76, align 8
  %77 = call ptr @wmem_file_scope()
  %78 = call noalias ptr @wmem_alloc(ptr noundef %77, i64 noundef 24)
  store ptr %78, ptr %13, align 8
  %79 = load ptr, ptr @gcp_trxs, align 8
  %80 = getelementptr inbounds [4 x %struct._wmem_tree_key_t], ptr %14, i64 0, i64 0
  %81 = call ptr @wmem_tree_lookup32_array(ptr noundef %79, ptr noundef %80)
  store ptr %81, ptr %12, align 8
  %82 = load ptr, ptr %12, align 8
  %83 = icmp ne ptr %82, null
  br i1 %83, label %105, label %84

84:                                               ; preds = %56
  %85 = call ptr @wmem_file_scope()
  %86 = call noalias ptr @wmem_alloc(ptr noundef %85, i64 noundef 48)
  store ptr %86, ptr %12, align 8
  %87 = load ptr, ptr %7, align 8
  %88 = load ptr, ptr %12, align 8
  %89 = getelementptr inbounds %struct._gcp_trx_t, ptr %88, i32 0, i32 0
  store ptr %87, ptr %89, align 8
  %90 = load i32, ptr %8, align 4
  %91 = load ptr, ptr %12, align 8
  %92 = getelementptr inbounds %struct._gcp_trx_t, ptr %91, i32 0, i32 1
  store i32 %90, ptr %92, align 8
  %93 = load i32, ptr %9, align 4
  %94 = load ptr, ptr %12, align 8
  %95 = getelementptr inbounds %struct._gcp_trx_t, ptr %94, i32 0, i32 2
  store i32 %93, ptr %95, align 4
  %96 = load ptr, ptr %12, align 8
  %97 = getelementptr inbounds %struct._gcp_trx_t, ptr %96, i32 0, i32 3
  store i32 0, ptr %97, align 8
  %98 = load ptr, ptr %12, align 8
  %99 = getelementptr inbounds %struct._gcp_trx_t, ptr %98, i32 0, i32 6
  store i32 0, ptr %99, align 8
  %100 = load ptr, ptr %12, align 8
  %101 = getelementptr inbounds %struct._gcp_trx_t, ptr %100, i32 0, i32 4
  store ptr null, ptr %101, align 8
  %102 = load ptr, ptr @gcp_trxs, align 8
  %103 = getelementptr inbounds [4 x %struct._wmem_tree_key_t], ptr %14, i64 0, i64 0
  %104 = load ptr, ptr %12, align 8
  call void @wmem_tree_insert32_array(ptr noundef %102, ptr noundef %103, ptr noundef %104)
  br label %105

105:                                              ; preds = %84, %56
  %106 = load i32, ptr %9, align 4
  switch i32 %106, label %112 [
    i32 2, label %107
  ]

107:                                              ; preds = %105
  %108 = load ptr, ptr %12, align 8
  %109 = getelementptr inbounds %struct._gcp_trx_t, ptr %108, i32 0, i32 3
  %110 = load i32, ptr %109, align 8
  %111 = add i32 %110, 1
  store i32 %111, ptr %109, align 8
  br label %113

112:                                              ; preds = %105
  br label %113

113:                                              ; preds = %112, %107
  br label %114

114:                                              ; preds = %113
  br label %138

115:                                              ; preds = %18
  %116 = load ptr, ptr %10, align 8
  %117 = getelementptr inbounds %struct._packet_info, ptr %116, i32 0, i32 50
  %118 = load ptr, ptr %117, align 8
  %119 = call noalias ptr @wmem_alloc(ptr noundef %118, i64 noundef 48)
  store ptr %119, ptr %12, align 8
  %120 = load ptr, ptr %10, align 8
  %121 = getelementptr inbounds %struct._packet_info, ptr %120, i32 0, i32 50
  %122 = load ptr, ptr %121, align 8
  %123 = call noalias ptr @wmem_alloc(ptr noundef %122, i64 noundef 24)
  store ptr %123, ptr %13, align 8
  %124 = load ptr, ptr %12, align 8
  %125 = getelementptr inbounds %struct._gcp_trx_t, ptr %124, i32 0, i32 0
  store ptr null, ptr %125, align 8
  %126 = load i32, ptr %8, align 4
  %127 = load ptr, ptr %12, align 8
  %128 = getelementptr inbounds %struct._gcp_trx_t, ptr %127, i32 0, i32 1
  store i32 %126, ptr %128, align 8
  %129 = load i32, ptr %9, align 4
  %130 = load ptr, ptr %12, align 8
  %131 = getelementptr inbounds %struct._gcp_trx_t, ptr %130, i32 0, i32 2
  store i32 %129, ptr %131, align 4
  %132 = load ptr, ptr %12, align 8
  %133 = getelementptr inbounds %struct._gcp_trx_t, ptr %132, i32 0, i32 3
  store i32 0, ptr %133, align 8
  %134 = load ptr, ptr %12, align 8
  %135 = getelementptr inbounds %struct._gcp_trx_t, ptr %134, i32 0, i32 6
  store i32 0, ptr %135, align 8
  %136 = load ptr, ptr %12, align 8
  %137 = getelementptr inbounds %struct._gcp_trx_t, ptr %136, i32 0, i32 4
  store ptr null, ptr %137, align 8
  br label %138

138:                                              ; preds = %115, %114
  %139 = load ptr, ptr %13, align 8
  %140 = icmp ne ptr %139, null
  br i1 %140, label %141, label %142

141:                                              ; preds = %138
  br label %144

142:                                              ; preds = %138
  call void (ptr, ...) @proto_report_dissector_bug(ptr noundef @.str.27, ptr noundef @.str.26, i32 noundef 734, ptr noundef @.str.28) #7
  unreachable

143:                                              ; No predecessors!
  br label %144

144:                                              ; preds = %143, %141
  %145 = load ptr, ptr %12, align 8
  %146 = load ptr, ptr %13, align 8
  %147 = getelementptr inbounds %struct._gcp_trx_msg_t, ptr %146, i32 0, i32 0
  store ptr %145, ptr %147, align 8
  %148 = load ptr, ptr %13, align 8
  %149 = getelementptr inbounds %struct._gcp_trx_msg_t, ptr %148, i32 0, i32 1
  store ptr null, ptr %149, align 8
  %150 = load ptr, ptr %13, align 8
  %151 = load ptr, ptr %13, align 8
  %152 = getelementptr inbounds %struct._gcp_trx_msg_t, ptr %151, i32 0, i32 2
  store ptr %150, ptr %152, align 8
  %153 = load ptr, ptr %7, align 8
  %154 = getelementptr inbounds %struct._gcp_msg_t, ptr %153, i32 0, i32 4
  %155 = load ptr, ptr %154, align 8
  %156 = icmp ne ptr %155, null
  br i1 %156, label %157, label %169

157:                                              ; preds = %144
  %158 = load ptr, ptr %13, align 8
  %159 = load ptr, ptr %7, align 8
  %160 = getelementptr inbounds %struct._gcp_msg_t, ptr %159, i32 0, i32 4
  %161 = load ptr, ptr %160, align 8
  %162 = getelementptr inbounds %struct._gcp_trx_msg_t, ptr %161, i32 0, i32 2
  %163 = load ptr, ptr %162, align 8
  %164 = getelementptr inbounds %struct._gcp_trx_msg_t, ptr %163, i32 0, i32 1
  store ptr %158, ptr %164, align 8
  %165 = load ptr, ptr %7, align 8
  %166 = getelementptr inbounds %struct._gcp_msg_t, ptr %165, i32 0, i32 4
  %167 = load ptr, ptr %166, align 8
  %168 = getelementptr inbounds %struct._gcp_trx_msg_t, ptr %167, i32 0, i32 2
  store ptr %158, ptr %168, align 8
  br label %173

169:                                              ; preds = %144
  %170 = load ptr, ptr %13, align 8
  %171 = load ptr, ptr %7, align 8
  %172 = getelementptr inbounds %struct._gcp_msg_t, ptr %171, i32 0, i32 4
  store ptr %170, ptr %172, align 8
  br label %173

173:                                              ; preds = %169, %157
  %174 = load ptr, ptr %12, align 8
  store ptr %174, ptr %6, align 8
  br label %175

175:                                              ; preds = %173, %46, %17
  %176 = load ptr, ptr %6, align 8
  ret ptr %176
}