; Function Attrs: nounwind uwtable
define hidden ptr @gcp_trx(ptr noundef %0, i32 noundef %1, i32 noundef %2, ptr noundef readonly captures(none) %3, i32 noundef %4) local_unnamed_addr #0 {
  %6 = alloca i32, align 4
  %7 = alloca [4 x %struct._wmem_tree_key_t], align 16
  store i32 %1, ptr %6, align 4
  %.not = icmp eq ptr %0, null
  br i1 %.not, label %.loopexit, label %8

8:                                                ; preds = %5
  %.not52 = icmp eq i32 %4, 0
  br i1 %.not52, label %49, label %9

9:                                                ; preds = %8
  %10 = getelementptr inbounds nuw i8, ptr %0, i64 40
  %11 = load i32, ptr %10, align 8
  %.not53 = icmp eq i32 %11, 0
  br i1 %.not53, label %21, label %12

12:                                               ; preds = %9
  %13 = getelementptr inbounds nuw i8, ptr %0, i64 32
  %.059 = load ptr, ptr %13, align 8
  %.not5760 = icmp eq ptr %.059, null
  br i1 %.not5760, label %._crit_edge, label %.lr.ph

.lr.ph:                                           ; preds = %12, %19
  %.061 = phi ptr [ %.0, %19 ], [ %.059, %12 ]
  %14 = load ptr, ptr %.061, align 8
  %.not58 = icmp eq ptr %14, null
  br i1 %.not58, label %19, label %15

15:                                               ; preds = %.lr.ph
  %16 = getelementptr inbounds nuw i8, ptr %14, i64 8
  %17 = load i32, ptr %16, align 8
  %18 = icmp eq i32 %17, %1
  br i1 %18, label %.loopexit, label %19

19:                                               ; preds = %.lr.ph, %15
  %20 = getelementptr inbounds nuw i8, ptr %.061, i64 8
  %.0 = load ptr, ptr %20, align 8
  %.not57 = icmp eq ptr %.0, null
  br i1 %.not57, label %._crit_edge, label %.lr.ph, !llvm.loop !4

._crit_edge:                                      ; preds = %19, %12
  tail call void (ptr, ...) @proto_report_dissector_bug(ptr noundef nonnull @.str.25, ptr noundef nonnull @.str.26, i32 noundef 685) #9
  unreachable

21:                                               ; preds = %9
  store i32 1, ptr %7, align 16
  %22 = getelementptr inbounds nuw i8, ptr %0, i64 4
  %23 = getelementptr inbounds nuw i8, ptr %7, i64 8
  store ptr %22, ptr %23, align 8
  %24 = getelementptr inbounds nuw i8, ptr %7, i64 16
  store i32 1, ptr %24, align 16
  %25 = getelementptr inbounds nuw i8, ptr %7, i64 24
  store ptr %0, ptr %25, align 8
  %26 = getelementptr inbounds nuw i8, ptr %7, i64 32
  store i32 1, ptr %26, align 16
  %27 = getelementptr inbounds nuw i8, ptr %7, i64 40
  store ptr %6, ptr %27, align 8
  %28 = getelementptr inbounds nuw i8, ptr %7, i64 48
  store i32 0, ptr %28, align 16
  %29 = getelementptr inbounds nuw i8, ptr %7, i64 56
  store ptr null, ptr %29, align 8
  %30 = call ptr @wmem_file_scope() #7
  %31 = call noalias ptr @wmem_alloc(ptr noundef %30, i64 noundef 24) #7
  %32 = load ptr, ptr @gcp_trxs, align 8
  %33 = call ptr @wmem_tree_lookup32_array(ptr noundef %32, ptr noundef nonnull %7) #7
  %.not54 = icmp eq ptr %33, null
  br i1 %.not54, label %34, label %44

34:                                               ; preds = %21
  %35 = call ptr @wmem_file_scope() #7
  %36 = call noalias ptr @wmem_alloc(ptr noundef %35, i64 noundef 48) #7
  store ptr %0, ptr %36, align 8
  %37 = load i32, ptr %6, align 4
  %38 = getelementptr inbounds nuw i8, ptr %36, i64 8
  store i32 %37, ptr %38, align 8
  %39 = getelementptr inbounds nuw i8, ptr %36, i64 12
  store i32 %2, ptr %39, align 4
  %40 = getelementptr inbounds nuw i8, ptr %36, i64 16
  store i32 0, ptr %40, align 8
  %41 = getelementptr inbounds nuw i8, ptr %36, i64 40
  store i32 0, ptr %41, align 8
  %42 = getelementptr inbounds nuw i8, ptr %36, i64 24
  store ptr null, ptr %42, align 8
  %43 = load ptr, ptr @gcp_trxs, align 8
  call void @wmem_tree_insert32_array(ptr noundef %43, ptr noundef nonnull %7, ptr noundef nonnull %36) #7
  br label %44

44:                                               ; preds = %34, %21
  %.045 = phi ptr [ %33, %21 ], [ %36, %34 ]
  %cond = icmp eq i32 %2, 2
  br i1 %cond, label %45, label %60

45:                                               ; preds = %44
  %46 = getelementptr inbounds nuw i8, ptr %.045, i64 16
  %47 = load i32, ptr %46, align 8
  %48 = add i32 %47, 1
  store i32 %48, ptr %46, align 8
  br label %60

49:                                               ; preds = %8
  %50 = getelementptr inbounds nuw i8, ptr %3, i64 408
  %51 = load ptr, ptr %50, align 8
  %52 = tail call noalias ptr @wmem_alloc(ptr noundef %51, i64 noundef 48) #7
  %53 = load ptr, ptr %50, align 8
  %54 = tail call noalias ptr @wmem_alloc(ptr noundef %53, i64 noundef 24) #7
  store ptr null, ptr %52, align 8
  %55 = getelementptr inbounds nuw i8, ptr %52, i64 8
  store i32 %1, ptr %55, align 8
  %56 = getelementptr inbounds nuw i8, ptr %52, i64 12
  store i32 %2, ptr %56, align 4
  %57 = getelementptr inbounds nuw i8, ptr %52, i64 16
  store i32 0, ptr %57, align 8
  %58 = getelementptr inbounds nuw i8, ptr %52, i64 40
  store i32 0, ptr %58, align 8
  %59 = getelementptr inbounds nuw i8, ptr %52, i64 24
  store ptr null, ptr %59, align 8
  br label %60

60:                                               ; preds = %44, %45, %49
  %.146 = phi ptr [ %.045, %45 ], [ %.045, %44 ], [ %52, %49 ]
  %.1 = phi ptr [ %31, %45 ], [ %31, %44 ], [ %54, %49 ]
  %.not55 = icmp eq ptr %.1, null
  br i1 %.not55, label %61, label %62

61:                                               ; preds = %60
  call void (ptr, ...) @proto_report_dissector_bug(ptr noundef nonnull @.str.27, ptr noundef nonnull @.str.26, i32 noundef 734, ptr noundef nonnull @.str.28) #9
  unreachable

62:                                               ; preds = %60
  store ptr %.146, ptr %.1, align 8
  %63 = getelementptr inbounds nuw i8, ptr %.1, i64 8
  store ptr null, ptr %63, align 8
  %64 = getelementptr inbounds nuw i8, ptr %.1, i64 16
  store ptr %.1, ptr %64, align 8
  %65 = getelementptr inbounds nuw i8, ptr %0, i64 32
  %66 = load ptr, ptr %65, align 8
  %.not56 = icmp eq ptr %66, null
  br i1 %.not56, label %73, label %67

67:                                               ; preds = %62
  %68 = getelementptr inbounds nuw i8, ptr %66, i64 16
  %69 = load ptr, ptr %68, align 8
  %70 = getelementptr inbounds nuw i8, ptr %69, i64 8
  store ptr %.1, ptr %70, align 8
  %71 = load ptr, ptr %65, align 8
  %72 = getelementptr inbounds nuw i8, ptr %71, i64 16
  store ptr %.1, ptr %72, align 8
  br label %.loopexit

73:                                               ; preds = %62
  store ptr %.1, ptr %65, align 8
  br label %.loopexit

.loopexit:                                        ; preds = %15, %67, %73, %5
  %.047 = phi ptr [ null, %5 ], [ %.146, %73 ], [ %.146, %67 ], [ %14, %15 ]
  ret ptr %.047
}